target datalayout = "e-m:e-p270:32:32-p271:32:32-p272:64:64-i64:64-i128:128-f80:128-n8:16:32:64-S128"
target triple = "x86_64-pc-linux-gnu"

%struct.SDL_Palette = type { i32, ptr, i32, i32 }

@.str.66 = private unnamed_addr constant [26 x i8] c"Parameter '%s' is invalid\00", align 1
@.str.67 = private unnamed_addr constant [8 x i8] c"ncolors\00", align 1

; Function Attrs: nounwind uwtable
define hidden ptr @SDL_CreatePalette_REAL(i32 noundef %0) #0 {
  %2 = alloca ptr, align 8
  %3 = alloca i32, align 4
  %4 = alloca ptr, align 8
  %5 = alloca i32, align 4
  store i32 %0, ptr %3, align 4
  call void @llvm.lifetime.start.p0(i64 8, ptr %4) #7
  %6 = load i32, ptr %3, align 4
  %7 = icmp slt i32 %6, 1
  br i1 %7, label %8, label %10

8:                                                ; preds = %1
  %9 = call zeroext i1 (ptr, ...) @SDL_SetError_REAL(ptr noundef @.str.66, ptr noundef @.str.67)
  store ptr null, ptr %2, align 8
  store i32 1, ptr %5, align 4
  br label %43

10:                                               ; preds = %1
  %11 = call noalias ptr @SDL_malloc_REAL(i64 noundef 24)
  store ptr %11, ptr %4, align 8
  %12 = load ptr, ptr %4, align 8
  %13 = icmp ne ptr %12, null
  br i1 %13, label %15, label %14

14:                                               ; preds = %10
  store ptr null, ptr %2, align 8
  store i32 1, ptr %5, align 4
  br label %43

15:                                               ; preds = %10
  %16 = load i32, ptr %3, align 4
  %17 = sext i32 %16 to i64
  %18 = mul i64 %17, 4
  %19 = call noalias ptr @SDL_malloc_REAL(i64 noundef %18)
  %20 = load ptr, ptr %4, align 8
  %21 = getelementptr inbounds nuw %struct.SDL_Palette, ptr %20, i32 0, i32 1
  store ptr %19, ptr %21, align 8
  %22 = load ptr, ptr %4, align 8
  %23 = getelementptr inbounds nuw %struct.SDL_Palette, ptr %22, i32 0, i32 1
  %24 = load ptr, ptr %23, align 8
  %25 = icmp ne ptr %24, null
  br i1 %25, label %28, label %26

26:                                               ; preds = %15
  %27 = load ptr, ptr %4, align 8
  call void @SDL_free_REAL(ptr noundef %27)
  store ptr null, ptr %2, align 8
  store i32 1, ptr %5, align 4
  br label %43

28:                                               ; preds = %15
  %29 = load i32, ptr %3, align 4
  %30 = load ptr, ptr %4, align 8
  %31 = getelementptr inbounds nuw %struct.SDL_Palette, ptr %30, i32 0, i32 0
  store i32 %29, ptr %31, align 8
  %32 = load ptr, ptr %4, align 8
  %33 = getelementptr inbounds nuw %struct.SDL_Palette, ptr %32, i32 0, i32 2
  store i32 1, ptr %33, align 8
  %34 = load ptr, ptr %4, align 8
  %35 = getelementptr inbounds nuw %struct.SDL_Palette, ptr %34, i32 0, i32 3
  store i32 1, ptr %35, align 4
  %36 = load ptr, ptr %4, align 8
  %37 = getelementptr inbounds nuw %struct.SDL_Palette, ptr %36, i32 0, i32 1
  %38 = load ptr, ptr %37, align 8
  %39 = load i32, ptr %3, align 4
  %40 = sext i32 %39 to i64
  %41 = mul i64 %40, 4
  call void @llvm.memset.p0.i64(ptr align 1 %38, i8 -1, i64 %41, i1 false)
  %42 = load ptr, ptr %4, align 8
  store ptr %42, ptr %2, align 8
  store i32 1, ptr %5, align 4
  br label %43

43:                                               ; preds = %28, %26, %14, %8
  call void @llvm.lifetime.end.p0(i64 8, ptr %4) #7
  %44 = load ptr, ptr %2, align 8
  ret ptr %44
}