; Function Attrs: nounwind uwtable
define hidden ptr @SDL_CreatePalette_REAL(i32 noundef %0) local_unnamed_addr #1 {
  %2 = icmp slt i32 %0, 1
  br i1 %2, label %3, label %5

3:                                                ; preds = %1
  %4 = tail call zeroext i1 (ptr, ...) @SDL_SetError_REAL(ptr noundef nonnull @.str.66, ptr noundef nonnull @.str.67) #15
  br label %16

5:                                                ; preds = %1
  %6 = tail call noalias ptr @SDL_malloc_REAL(i64 noundef 24) #15
  %.not = icmp eq ptr %6, null
  br i1 %.not, label %16, label %7

7:                                                ; preds = %5
  %8 = zext nneg i32 %0 to i64
  %9 = shl nuw nsw i64 %8, 2
  %10 = tail call noalias ptr @SDL_malloc_REAL(i64 noundef %9) #15
  %11 = getelementptr inbounds nuw i8, ptr %6, i64 8
  store ptr %10, ptr %11, align 8
  %.not15 = icmp eq ptr %10, null
  br i1 %.not15, label %12, label %13

12:                                               ; preds = %7
  tail call void @SDL_free_REAL(ptr noundef nonnull %6) #15
  br label %16

13:                                               ; preds = %7
  store i32 %0, ptr %6, align 8
  %14 = getelementptr inbounds nuw i8, ptr %6, i64 16
  store i32 1, ptr %14, align 8
  %15 = getelementptr inbounds nuw i8, ptr %6, i64 20
  store i32 1, ptr %15, align 4
  tail call void @llvm.memset.p0.i64(ptr nonnull align 1 %10, i8 -1, i64 %9, i1 false)
  br label %16

16:                                               ; preds = %5, %13, %12, %3
  %.0 = phi ptr [ null, %3 ], [ %6, %13 ], [ null, %12 ], [ null, %5 ]
  ret ptr %.0
}